target datalayout = "e-m:e-p270:32:32-p271:32:32-p272:64:64-i64:64-i128:128-f80:128-n8:16:32:64-S128"
target triple = "x86_64-pc-linux-gnu"

@hf_srvloc_url_lifetime = internal global i32 0, align 4
@hf_srvloc_url_urllen = internal global i32 0, align 4
@hf_srvloc_url_url = internal global i32 0, align 4
@hf_srvloc_timestamp = internal global i32 0, align 4
@hf_srvloc_block_structure_descriptor = internal global i32 0, align 4
@hf_srvloc_authenticator_length = internal global i32 0, align 4
@hf_srvloc_authentication_block = internal global i32 0, align 4

; Function Attrs: null_pointer_is_valid sspstrong uwtable
define internal i32 @dissect_authblk(ptr noundef %0, i32 noundef %1, ptr noundef %2) #0 {
  %4 = alloca ptr, align 8
  %5 = alloca i32, align 4
  %6 = alloca ptr, align 8
  %7 = alloca i16, align 2
  store ptr %0, ptr %4, align 8
  store i32 %1, ptr %5, align 4
  store ptr %2, ptr %6, align 8
  call void @llvm.lifetime.start.p0(i64 2, ptr %7) #7
  %8 = load ptr, ptr %6, align 8
  %9 = load i32, ptr @hf_srvloc_timestamp, align 4
  %10 = load ptr, ptr %4, align 8
  %11 = load i32, ptr %5, align 4
  %12 = call ptr @proto_tree_add_item(ptr noundef %8, i32 noundef %9, ptr noundef %10, i32 noundef %11, i32 noundef 8, i32 noundef 2)
  %13 = load ptr, ptr %6, align 8
  %14 = load i32, ptr @hf_srvloc_block_structure_descriptor, align 4
  %15 = load ptr, ptr %4, align 8
  %16 = load i32, ptr %5, align 4
  %17 = add i32 %16, 8
  %18 = call ptr @proto_tree_add_item(ptr noundef %13, i32 noundef %14, ptr noundef %15, i32 noundef %17, i32 noundef 2, i32 noundef 0)
  %19 = load ptr, ptr %4, align 8
  %20 = load i32, ptr %5, align 4
  %21 = add i32 %20, 10
  %22 = call zeroext i16 @tvb_get_ntohs(ptr noundef %19, i32 noundef %21)
  store i16 %22, ptr %7, align 2
  %23 = load ptr, ptr %6, align 8
  %24 = load i32, ptr @hf_srvloc_authenticator_length, align 4
  %25 = load ptr, ptr %4, align 8
  %26 = load i32, ptr %5, align 4
  %27 = add i32 %26, 10
  %28 = call ptr @proto_tree_add_item(ptr noundef %23, i32 noundef %24, ptr noundef %25, i32 noundef %27, i32 noundef 2, i32 noundef 0)
  %29 = load i32, ptr %5, align 4
  %30 = add i32 %29, 12
  store i32 %30, ptr %5, align 4
  %31 = load ptr, ptr %6, align 8
  %32 = load i32, ptr @hf_srvloc_authentication_block, align 4
  %33 = load ptr, ptr %4, align 8
  %34 = load i32, ptr %5, align 4
  %35 = load i16, ptr %7, align 2
  %36 = zext i16 %35 to i32
  %37 = call ptr @proto_tree_add_item(ptr noundef %31, i32 noundef %32, ptr noundef %33, i32 noundef %34, i32 noundef %36, i32 noundef 0)
  %38 = load i16, ptr %7, align 2
  %39 = zext i16 %38 to i32
  %40 = load i32, ptr %5, align 4
  %41 = add i32 %40, %39
  store i32 %41, ptr %5, align 4
  %42 = load i32, ptr %5, align 4
  call void @llvm.lifetime.end.p0(i64 2, ptr %7) #7
  ret i32 %42
}

; Function Attrs: null_pointer_is_valid sspstrong uwtable
define internal void @add_v1_string(ptr noundef %0, i32 noundef %1, ptr noundef %2, i32 noundef %3, i32 noundef %4, i16 noundef zeroext %5) #0 {
  %7 = alloca ptr, align 8
  %8 = alloca i32, align 4
  %9 = alloca ptr, align 8
  %10 = alloca i32, align 4
  %11 = alloca i32, align 4
  %12 = alloca i16, align 2
  store ptr %0, ptr %7, align 8
  store i32 %1, ptr %8, align 4
  store ptr %2, ptr %9, align 8
  store i32 %3, ptr %10, align 4
  store i32 %4, ptr %11, align 4
  store i16 %5, ptr %12, align 2
  %13 = load i16, ptr %12, align 2
  %14 = zext i16 %13 to i32
  switch i32 %14, label %22 [
    i32 1000, label %15
  ]

15:                                               ; preds = %6
  %16 = load ptr, ptr %7, align 8
  %17 = load i32, ptr %8, align 4
  %18 = load ptr, ptr %9, align 8
  %19 = load i32, ptr %10, align 4
  %20 = load i32, ptr %11, align 4
  %21 = call ptr @proto_tree_add_item(ptr noundef %16, i32 noundef %17, ptr noundef %18, i32 noundef %19, i32 noundef %20, i32 noundef 6)
  br label %29

22:                                               ; preds = %6
  %23 = load ptr, ptr %7, align 8
  %24 = load i32, ptr %8, align 4
  %25 = load ptr, ptr %9, align 8
  %26 = load i32, ptr %10, align 4
  %27 = load i32, ptr %11, align 4
  %28 = call ptr @proto_tree_add_item(ptr noundef %23, i32 noundef %24, ptr noundef %25, i32 noundef %26, i32 noundef %27, i32 noundef 0)
  br label %29

29:                                               ; preds = %22, %15
  ret void
}

; Function Attrs: null_pointer_is_valid sspstrong uwtable
define internal i32 @dissect_url_entry_v1(ptr noundef %0, i32 noundef %1, ptr noundef %2, i16 noundef zeroext %3, i16 noundef zeroext %4) #0 {
  %6 = alloca ptr, align 8
  %7 = alloca i32, align 4
  %8 = alloca ptr, align 8
  %9 = alloca i16, align 2
  %10 = alloca i16, align 2
  %11 = alloca i16, align 2
  store ptr %0, ptr %6, align 8
  store i32 %1, ptr %7, align 4
  store ptr %2, ptr %8, align 8
  store i16 %3, ptr %9, align 2
  store i16 %4, ptr %10, align 2
  call void @llvm.lifetime.start.p0(i64 2, ptr %11) #7
  %12 = load ptr, ptr %8, align 8
  %13 = load i32, ptr @hf_srvloc_url_lifetime, align 4
  %14 = load ptr, ptr %6, align 8
  %15 = load i32, ptr %7, align 4
  %16 = call ptr @proto_tree_add_item(ptr noundef %12, i32 noundef %13, ptr noundef %14, i32 noundef %15, i32 noundef 2, i32 noundef 0)
  %17 = load i32, ptr %7, align 4
  %18 = add i32 %17, 2
  store i32 %18, ptr %7, align 4
  %19 = load ptr, ptr %6, align 8
  %20 = load i32, ptr %7, align 4
  %21 = call zeroext i16 @tvb_get_ntohs(ptr noundef %19, i32 noundef %20)
  store i16 %21, ptr %11, align 2
  %22 = load ptr, ptr %8, align 8
  %23 = load i32, ptr @hf_srvloc_url_urllen, align 4
  %24 = load ptr, ptr %6, align 8
  %25 = load i32, ptr %7, align 4
  %26 = load i16, ptr %11, align 2
  %27 = zext i16 %26 to i32
  %28 = call ptr @proto_tree_add_uint(ptr noundef %22, i32 noundef %23, ptr noundef %24, i32 noundef %25, i32 noundef 2, i32 noundef %27)
  %29 = load i32, ptr %7, align 4
  %30 = add i32 %29, 2
  store i32 %30, ptr %7, align 4
  %31 = load ptr, ptr %8, align 8
  %32 = load i32, ptr @hf_srvloc_url_url, align 4
  %33 = load ptr, ptr %6, align 8
  %34 = load i32, ptr %7, align 4
  %35 = load i16, ptr %11, align 2
  %36 = zext i16 %35 to i32
  %37 = load i16, ptr %9, align 2
  call void @add_v1_string(ptr noundef %31, i32 noundef %32, ptr noundef %33, i32 noundef %34, i32 noundef %36, i16 noundef zeroext %37)
  %38 = load i16, ptr %11, align 2
  %39 = zext i16 %38 to i32
  %40 = load i32, ptr %7, align 4
  %41 = add i32 %40, %39
  store i32 %41, ptr %7, align 4
  %42 = load i16, ptr %10, align 2
  %43 = zext i16 %42 to i32
  %44 = and i32 %43, 32
  %45 = icmp eq i32 %44, 32
  br i1 %45, label %46, label %51

46:                                               ; preds = %5
  %47 = load ptr, ptr %6, align 8
  %48 = load i32, ptr %7, align 4
  %49 = load ptr, ptr %8, align 8
  %50 = call i32 @dissect_authblk(ptr noundef %47, i32 noundef %48, ptr noundef %49)
  store i32 %50, ptr %7, align 4
  br label %51

51:                                               ; preds = %46, %5
  %52 = load i32, ptr %7, align 4
  call void @llvm.lifetime.end.p0(i64 2, ptr %11) #7
  ret i32 %52
}