; Function Attrs: null_pointer_is_valid sspstrong uwtable
define internal fastcc noundef i32 @dissect_url_entry_v1(ptr noundef %0, i32 noundef %1, ptr noundef %2, i16 noundef zeroext %3, i16 noundef zeroext range(i16 0, 256) %4) unnamed_addr #0 {
  %6 = load i32, ptr @hf_srvloc_url_lifetime, align 4
  %7 = tail call ptr @proto_tree_add_item(ptr noundef %2, i32 noundef %6, ptr noundef %0, i32 noundef %1, i32 noundef 2, i32 noundef 0)
  %8 = add i32 %1, 2
  %9 = tail call zeroext i16 @tvb_get_ntohs(ptr noundef %0, i32 noundef %8)
  %10 = load i32, ptr @hf_srvloc_url_urllen, align 4
  %11 = zext i16 %9 to i32
  %12 = tail call ptr @proto_tree_add_uint(ptr noundef %2, i32 noundef %10, ptr noundef %0, i32 noundef %8, i32 noundef 2, i32 noundef %11)
  %13 = add i32 %1, 4
  %14 = load i32, ptr @hf_srvloc_url_url, align 4
  %cond.i = icmp eq i16 %3, 1000
  %..i = select i1 %cond.i, i32 6, i32 0
  %15 = tail call ptr @proto_tree_add_item(ptr noundef %2, i32 noundef %14, ptr noundef %0, i32 noundef %13, i32 noundef %11, i32 noundef %..i)
  %16 = add i32 %13, %11
  %17 = and i16 %4, 32
  %.not = icmp eq i16 %17, 0
  br i1 %.not, label %33, label %18

18:                                               ; preds = %5
  %19 = load i32, ptr @hf_srvloc_timestamp, align 4
  %20 = tail call ptr @proto_tree_add_item(ptr noundef %2, i32 noundef %19, ptr noundef %0, i32 noundef %16, i32 noundef 8, i32 noundef 2)
  %21 = load i32, ptr @hf_srvloc_block_structure_descriptor, align 4
  %22 = add i32 %16, 8
  %23 = tail call ptr @proto_tree_add_item(ptr noundef %2, i32 noundef %21, ptr noundef %0, i32 noundef %22, i32 noundef 2, i32 noundef 0)
  %24 = add i32 %16, 10
  %25 = tail call zeroext i16 @tvb_get_ntohs(ptr noundef %0, i32 noundef %24)
  %26 = load i32, ptr @hf_srvloc_authenticator_length, align 4
  %27 = tail call ptr @proto_tree_add_item(ptr noundef %2, i32 noundef %26, ptr noundef %0, i32 noundef %24, i32 noundef 2, i32 noundef 0)
  %28 = add i32 %16, 12
  %29 = load i32, ptr @hf_srvloc_authentication_block, align 4
  %30 = zext i16 %25 to i32
  %31 = tail call ptr @proto_tree_add_item(ptr noundef %2, i32 noundef %29, ptr noundef %0, i32 noundef %28, i32 noundef %30, i32 noundef 0)
  %32 = add i32 %28, %30
  br label %33

33:                                               ; preds = %18, %5
  %.0 = phi i32 [ %32, %18 ], [ %16, %5 ]
  ret i32 %.0
}